; ModuleID = '55/890.c'
source_filename = "55/890.c"
target datalayout = "e-m:e-p270:32:32-p271:32:32-p272:64:64-i64:64-f80:128-n8:16:32:64-S128"
target triple = "x86_64-pc-linux-gnu"

@.str = private unnamed_addr constant [7 x i8] c"%d%s%d\00", align 1
@.str.1 = private unnamed_addr constant [3 x i8] c"%d\00", align 1
@.str.2 = private unnamed_addr constant [3 x i8] c"%c\00", align 1
@.str.3 = private unnamed_addr constant [2 x i8] c"\0A\00", align 1

; Function Attrs: noinline nounwind uwtable
define dso_local i32 @main() #0 {
  %1 = alloca i32, align 4
  %2 = alloca [1000 x i8], align 16
  %3 = alloca i32, align 4
  %4 = alloca i32, align 4
  %5 = alloca i32, align 4
  %6 = alloca i32, align 4
  %7 = alloca i32, align 4
  %8 = alloca i32, align 4
  %9 = alloca [100 x i32], align 16
  %10 = alloca i32, align 4
  store i32 0, i32* %1, align 4
  store i32 0, i32* %4, align 4
  %11 = getelementptr inbounds [1000 x i8], [1000 x i8]* %2, i64 0, i64 0
  %12 = call i32 (i8*, ...) @__isoc99_scanf(i8* getelementptr inbounds ([7 x i8], [7 x i8]* @.str, i64 0, i64 0), i32* %6, i8* %11, i32* %7)
  %13 = getelementptr inbounds [1000 x i8], [1000 x i8]* %2, i64 0, i64 0
  %14 = call i64 @strlen(i8* %13) #4
  %15 = trunc i64 %14 to i32
  store i32 %15, i32* %3, align 4
  store i32 0, i32* %5, align 4
  br label %16

16:                                               ; preds = %101, %0
  %17 = load i32, i32* %5, align 4
  %18 = load i32, i32* %3, align 4
  %19 = sub nsw i32 %18, 1
  %20 = icmp sle i32 %17, %19
  br i1 %20, label %21, label %104

21:                                               ; preds = %16
  %22 = load i32, i32* %5, align 4
  %23 = sext i32 %22 to i64
  %24 = getelementptr inbounds [1000 x i8], [1000 x i8]* %2, i64 0, i64 %23
  %25 = load i8, i8* %24, align 1
  %26 = sext i8 %25 to i32
  %27 = icmp sle i32 65, %26
  br i1 %27, label %28, label %47

28:                                               ; preds = %21
  %29 = load i32, i32* %5, align 4
  %30 = sext i32 %29 to i64
  %31 = getelementptr inbounds [1000 x i8], [1000 x i8]* %2, i64 0, i64 %30
  %32 = load i8, i8* %31, align 1
  %33 = sext i8 %32 to i32
  %34 = icmp sle i32 %33, 90
  br i1 %34, label %35, label %47

35:                                               ; preds = %28
  %36 = load i32, i32* %5, align 4
  %37 = sext i32 %36 to i64
  %38 = getelementptr inbounds [1000 x i8], [1000 x i8]* %2, i64 0, i64 %37
  %39 = load i8, i8* %38, align 1
  %40 = sext i8 %39 to i32
  %41 = sub nsw i32 %40, 65
  %42 = add nsw i32 %41, 10
  %43 = trunc i32 %42 to i8
  %44 = load i32, i32* %5, align 4
  %45 = sext i32 %44 to i64
  %46 = getelementptr inbounds [1000 x i8], [1000 x i8]* %2, i64 0, i64 %45
  store i8 %43, i8* %46, align 1
  br label %100

47:                                               ; preds = %28, %21
  %48 = load i32, i32* %5, align 4
  %49 = sext i32 %48 to i64
  %50 = getelementptr inbounds [1000 x i8], [1000 x i8]* %2, i64 0, i64 %49
  %51 = load i8, i8* %50, align 1
  %52 = sext i8 %51 to i32
  %53 = icmp sle i32 97, %52
  br i1 %53, label %54, label %73

54:                                               ; preds = %47
  %55 = load i32, i32* %5, align 4
  %56 = sext i32 %55 to i64
  %57 = getelementptr inbounds [1000 x i8], [1000 x i8]* %2, i64 0, i64 %56
  %58 = load i8, i8* %57, align 1
  %59 = sext i8 %58 to i32
  %60 = icmp sle i32 %59, 122
  br i1 %60, label %61, label %73

61:                                               ; preds = %54
  %62 = load i32, i32* %5, align 4
  %63 = sext i32 %62 to i64
  %64 = getelementptr inbounds [1000 x i8], [1000 x i8]* %2, i64 0, i64 %63
  %65 = load i8, i8* %64, align 1
  %66 = sext i8 %65 to i32
  %67 = sub nsw i32 %66, 97
  %68 = add nsw i32 %67, 10
  %69 = trunc i32 %68 to i8
  %70 = load i32, i32* %5, align 4
  %71 = sext i32 %70 to i64
  %72 = getelementptr inbounds [1000 x i8], [1000 x i8]* %2, i64 0, i64 %71
  store i8 %69, i8* %72, align 1
  br label %99

73:                                               ; preds = %54, %47
  %74 = load i32, i32* %5, align 4
  %75 = sext i32 %74 to i64
  %76 = getelementptr inbounds [1000 x i8], [1000 x i8]* %2, i64 0, i64 %75
  %77 = load i8, i8* %76, align 1
  %78 = sext i8 %77 to i32
  %79 = icmp sle i32 48, %78
  br i1 %79, label %80, label %98

80:                                               ; preds = %73
  %81 = load i32, i32* %5, align 4
  %82 = sext i32 %81 to i64
  %83 = getelementptr inbounds [1000 x i8], [1000 x i8]* %2, i64 0, i64 %82
  %84 = load i8, i8* %83, align 1
  %85 = sext i8 %84 to i32
  %86 = icmp sle i32 %85, 57
  br i1 %86, label %87, label %98

87:                                               ; preds = %80
  %88 = load i32, i32* %5, align 4
  %89 = sext i32 %88 to i64
  %90 = getelementptr inbounds [1000 x i8], [1000 x i8]* %2, i64 0, i64 %89
  %91 = load i8, i8* %90, align 1
  %92 = sext i8 %91 to i32
  %93 = sub nsw i32 %92, 48
  %94 = trunc i32 %93 to i8
  %95 = load i32, i32* %5, align 4
  %96 = sext i32 %95 to i64
  %97 = getelementptr inbounds [1000 x i8], [1000 x i8]* %2, i64 0, i64 %96
  store i8 %94, i8* %97, align 1
  br label %98

98:                                               ; preds = %87, %80, %73
  br label %99

99:                                               ; preds = %98, %61
  br label %100

100:                                              ; preds = %99, %35
  br label %101

101:                                              ; preds = %100
  %102 = load i32, i32* %5, align 4
  %103 = add nsw i32 %102, 1
  store i32 %103, i32* %5, align 4
  br label %16

104:                                              ; preds = %16
  store i32 0, i32* %5, align 4
  br label %105

105:                                              ; preds = %130, %104
  %106 = load i32, i32* %5, align 4
  %107 = load i32, i32* %3, align 4
  %108 = sub nsw i32 %107, 1
  %109 = icmp sle i32 %106, %108
  br i1 %109, label %110, label %133

110:                                              ; preds = %105
  %111 = load i32, i32* %4, align 4
  %112 = sitofp i32 %111 to double
  %113 = load i32, i32* %5, align 4
  %114 = sext i32 %113 to i64
  %115 = getelementptr inbounds [1000 x i8], [1000 x i8]* %2, i64 0, i64 %114
  %116 = load i8, i8* %115, align 1
  %117 = sext i8 %116 to i32
  %118 = sitofp i32 %117 to double
  %119 = load i32, i32* %6, align 4
  %120 = sitofp i32 %119 to double
  %121 = load i32, i32* %3, align 4
  %122 = load i32, i32* %5, align 4
  %123 = sub nsw i32 %121, %122
  %124 = sub nsw i32 %123, 1
  %125 = sitofp i32 %124 to double
  %126 = call double @pow(double %120, double %125) #5
  %127 = fmul double %118, %126
  %128 = fadd double %112, %127
  %129 = fptosi double %128 to i32
  store i32 %129, i32* %4, align 4
  br label %130

130:                                              ; preds = %110
  %131 = load i32, i32* %5, align 4
  %132 = add nsw i32 %131, 1
  store i32 %132, i32* %5, align 4
  br label %105

133:                                              ; preds = %105
  %134 = load i32, i32* %4, align 4
  %135 = icmp eq i32 %134, 0
  br i1 %135, label %136, label %139

136:                                              ; preds = %133
  %137 = load i32, i32* %4, align 4
  %138 = call i32 (i8*, ...) @printf(i8* getelementptr inbounds ([3 x i8], [3 x i8]* @.str.1, i64 0, i64 0), i32 %137)
  br label %139

139:                                              ; preds = %136, %133
  %140 = load i32, i32* %4, align 4
  %141 = icmp ne i32 %140, 0
  br i1 %141, label %142, label %211

142:                                              ; preds = %139
  %143 = load i32, i32* %4, align 4
  store i32 %143, i32* %8, align 4
  store i32 0, i32* %5, align 4
  br label %144

144:                                              ; preds = %157, %142
  %145 = load i32, i32* %8, align 4
  %146 = icmp ne i32 %145, 0
  br i1 %146, label %147, label %160

147:                                              ; preds = %144
  %148 = load i32, i32* %8, align 4
  %149 = load i32, i32* %7, align 4
  %150 = srem i32 %148, %149
  %151 = load i32, i32* %5, align 4
  %152 = sext i32 %151 to i64
  %153 = getelementptr inbounds [100 x i32], [100 x i32]* %9, i64 0, i64 %152
  store i32 %150, i32* %153, align 4
  %154 = load i32, i32* %8, align 4
  %155 = load i32, i32* %7, align 4
  %156 = sdiv i32 %154, %155
  store i32 %156, i32* %8, align 4
  br label %157

157:                                              ; preds = %147
  %158 = load i32, i32* %5, align 4
  %159 = add nsw i32 %158, 1
  store i32 %159, i32* %5, align 4
  br label %144

160:                                              ; preds = %144
  %161 = load i32, i32* %5, align 4
  %162 = sub nsw i32 %161, 1
  store i32 %162, i32* %10, align 4
  br label %163

163:                                              ; preds = %207, %160
  %164 = load i32, i32* %10, align 4
  %165 = icmp sge i32 %164, 0
  br i1 %165, label %166, label %210

166:                                              ; preds = %163
  %167 = load i32, i32* %10, align 4
  %168 = sext i32 %167 to i64
  %169 = getelementptr inbounds [100 x i32], [100 x i32]* %9, i64 0, i64 %168
  %170 = load i32, i32* %169, align 4
  %171 = icmp sle i32 0, %170
  br i1 %171, label %172, label %184

172:                                              ; preds = %166
  %173 = load i32, i32* %10, align 4
  %174 = sext i32 %173 to i64
  %175 = getelementptr inbounds [100 x i32], [100 x i32]* %9, i64 0, i64 %174
  %176 = load i32, i32* %175, align 4
  %177 = icmp slt i32 %176, 10
  br i1 %177, label %178, label %184

178:                                              ; preds = %172
  %179 = load i32, i32* %10, align 4
  %180 = sext i32 %179 to i64
  %181 = getelementptr inbounds [100 x i32], [100 x i32]* %9, i64 0, i64 %180
  %182 = load i32, i32* %181, align 4
  %183 = call i32 (i8*, ...) @printf(i8* getelementptr inbounds ([3 x i8], [3 x i8]* @.str.1, i64 0, i64 0), i32 %182)
  br label %206

184:                                              ; preds = %172, %166
  %185 = load i32, i32* %10, align 4
  %186 = sext i32 %185 to i64
  %187 = getelementptr inbounds [100 x i32], [100 x i32]* %9, i64 0, i64 %186
  %188 = load i32, i32* %187, align 4
  %189 = icmp sge i32 %188, 10
  br i1 %189, label %190, label %205

190:                                              ; preds = %184
  %191 = load i32, i32* %10, align 4
  %192 = sext i32 %191 to i64
  %193 = getelementptr inbounds [100 x i32], [100 x i32]* %9, i64 0, i64 %192
  %194 = load i32, i32* %193, align 4
  %195 = add nsw i32 %194, 65
  %196 = sub nsw i32 %195, 10
  %197 = load i32, i32* %10, align 4
  %198 = sext i32 %197 to i64
  %199 = getelementptr inbounds [100 x i32], [100 x i32]* %9, i64 0, i64 %198
  store i32 %196, i32* %199, align 4
  %200 = load i32, i32* %10, align 4
  %201 = sext i32 %200 to i64
  %202 = getelementptr inbounds [100 x i32], [100 x i32]* %9, i64 0, i64 %201
  %203 = load i32, i32* %202, align 4
  %204 = call i32 (i8*, ...) @printf(i8* getelementptr inbounds ([3 x i8], [3 x i8]* @.str.2, i64 0, i64 0), i32 %203)
  br label %205

205:                                              ; preds = %190, %184
  br label %206

206:                                              ; preds = %205, %178
  br label %207

207:                                              ; preds = %206
  %208 = load i32, i32* %10, align 4
  %209 = add nsw i32 %208, -1
  store i32 %209, i32* %10, align 4
  br label %163

210:                                              ; preds = %163
  br label %211

211:                                              ; preds = %210, %139
  %212 = call i32 (i8*, ...) @printf(i8* getelementptr inbounds ([2 x i8], [2 x i8]* @.str.3, i64 0, i64 0))
  %213 = call i32 @getchar()
  %214 = call i32 @getchar()
  %215 = load i32, i32* %1, align 4
  ret i32 %215
}

declare dso_local i32 @__isoc99_scanf(i8*, ...) #1

; Function Attrs: nounwind readonly
declare dso_local i64 @strlen(i8*) #2

; Function Attrs: nounwind
declare dso_local double @pow(double, double) #3

declare dso_local i32 @printf(i8*, ...) #1

declare dso_local i32 @getchar() #1


!llvm.module.flags = !{!0}
!llvm.ident = !{!1}

!0 = !{i32 1, !"wchar_size", i32 4}
!1 = !{!"clang version 10.0.0-4ubuntu1 "}
